; Function Attrs: mustprogress nounwind uwtable
define hidden void @_ZN13TemplateTable44load_resolved_method_entry_special_or_staticE8RegisterS0_S0_(i32 %0, i32 %1, i32 %2) local_unnamed_addr #0 align 2 {
  %4 = alloca %class.Address, align 8
  %5 = alloca %class.Address, align 8
  tail call void @_ZN13TemplateTable34resolve_cache_and_index_for_methodEi8RegisterS0_(i32 noundef 1, i32 %0, i32 2)
  %6 = load ptr, ptr @_ZN13TemplateTable5_masmE, align 8
  %7 = load i8, ptr @PrintInterpreter, align 1
  %8 = trunc i8 %7 to i1
  br i1 %8, label %9, label %_ZN12Disassembler4hookI25InterpreterMacroAssemblerEEPT_PKciS3_.exit

9:                                                ; preds = %3
  tail call void @_ZN12Disassembler5_hookEPKciP14MacroAssembler(ptr noundef nonnull @.str, i32 noundef 2848, ptr noundef %6) #8
  br label %_ZN12Disassembler4hookI25InterpreterMacroAssemblerEEPT_PKciS3_.exit

_ZN12Disassembler4hookI25InterpreterMacroAssemblerEEPT_PKciS3_.exit: ; preds = %3, %9
  store i32 %0, ptr %4, align 8
  %10 = getelementptr inbounds i8, ptr %4, i64 4
  store <4 x i32> <i32 -1, i32 -1, i32 -1, i32 21>, ptr %10, align 4
  %11 = getelementptr inbounds i8, ptr %4, i64 20
  store i8 0, ptr %11, align 4
  %12 = getelementptr inbounds i8, ptr %4, i64 24
  store ptr getelementptr inbounds inrange(-16, 72) (i8, ptr @_ZTV10Relocation, i64 16), ptr %12, align 8
  %13 = getelementptr inbounds i8, ptr %4, i64 32
  store ptr null, ptr %13, align 8
  %14 = getelementptr inbounds i8, ptr %4, i64 40
  store i32 0, ptr %14, align 8
  %15 = call noundef i32 @_ZN14MacroAssembler18load_unsigned_byteE8Register7Address(ptr noundef nonnull align 8 dereferenceable(40) %6, i32 %2, ptr noundef nonnull %4) #8
  %16 = load ptr, ptr @_ZN13TemplateTable5_masmE, align 8
  %17 = load i8, ptr @PrintInterpreter, align 1
  %18 = trunc i8 %17 to i1
  br i1 %18, label %19, label %_ZN12Disassembler4hookI25InterpreterMacroAssemblerEEPT_PKciS3_.exit22

19:                                               ; preds = %_ZN12Disassembler4hookI25InterpreterMacroAssemblerEEPT_PKciS3_.exit
  call void @_ZN12Disassembler5_hookEPKciP14MacroAssembler(ptr noundef nonnull @.str, i32 noundef 2849, ptr noundef %16) #8
  br label %_ZN12Disassembler4hookI25InterpreterMacroAssemblerEEPT_PKciS3_.exit22

_ZN12Disassembler4hookI25InterpreterMacroAssemblerEEPT_PKciS3_.exit22: ; preds = %_ZN12Disassembler4hookI25InterpreterMacroAssemblerEEPT_PKciS3_.exit, %19
  store i32 %0, ptr %5, align 8
  %20 = getelementptr inbounds i8, ptr %5, i64 4
  store <4 x i32> <i32 -1, i32 -1, i32 -1, i32 0>, ptr %20, align 4
  %21 = getelementptr inbounds i8, ptr %5, i64 20
  store i8 0, ptr %21, align 4
  %22 = getelementptr inbounds i8, ptr %5, i64 24
  store ptr getelementptr inbounds inrange(-16, 72) (i8, ptr @_ZTV10Relocation, i64 16), ptr %22, align 8
  %23 = getelementptr inbounds i8, ptr %5, i64 32
  store ptr null, ptr %23, align 8
  %24 = getelementptr inbounds i8, ptr %5, i64 40
  store i32 0, ptr %24, align 8
  call void @_ZN14MacroAssembler6movptrE8Register7Address(ptr noundef nonnull align 8 dereferenceable(40) %16, i32 %1, ptr noundef nonnull %5) #8
  ret void
}